; ModuleID = '53/1484.c'
source_filename = "53/1484.c"
target datalayout = "e-m:e-p270:32:32-p271:32:32-p272:64:64-i64:64-f80:128-n8:16:32:64-S128"
target triple = "x86_64-pc-linux-gnu"

@.str = private unnamed_addr constant [3 x i8] c"%d\00", align 1
@.str.1 = private unnamed_addr constant [4 x i8] c",%d\00", align 1

; Function Attrs: noinline nounwind uwtable
define dso_local i32 @main() #0 {
  %1 = alloca i32, align 4
  %2 = alloca i32, align 4
  %3 = alloca i32, align 4
  %4 = alloca i32, align 4
  %5 = alloca [400 x [3 x i32]], align 16
  store i32 0, i32* %1, align 4
  %6 = call i32 (i8*, ...) @__isoc99_scanf(i8* getelementptr inbounds ([3 x i8], [3 x i8]* @.str, i64 0, i64 0), i32* %2)
  store i32 0, i32* %3, align 4
  br label %7

7:                                                ; preds = %21, %0
  %8 = load i32, i32* %3, align 4
  %9 = load i32, i32* %2, align 4
  %10 = icmp slt i32 %8, %9
  br i1 %10, label %11, label %24

11:                                               ; preds = %7
  %12 = load i32, i32* %3, align 4
  %13 = sext i32 %12 to i64
  %14 = getelementptr inbounds [400 x [3 x i32]], [400 x [3 x i32]]* %5, i64 0, i64 %13
  %15 = getelementptr inbounds [3 x i32], [3 x i32]* %14, i64 0, i64 0
  %16 = call i32 (i8*, ...) @__isoc99_scanf(i8* getelementptr inbounds ([3 x i8], [3 x i8]* @.str, i64 0, i64 0), i32* %15)
  %17 = load i32, i32* %3, align 4
  %18 = sext i32 %17 to i64
  %19 = getelementptr inbounds [400 x [3 x i32]], [400 x [3 x i32]]* %5, i64 0, i64 %18
  %20 = getelementptr inbounds [3 x i32], [3 x i32]* %19, i64 0, i64 1
  store i32 0, i32* %20, align 4
  br label %21

21:                                               ; preds = %11
  %22 = load i32, i32* %3, align 4
  %23 = add nsw i32 %22, 1
  store i32 %23, i32* %3, align 4
  br label %7

24:                                               ; preds = %7
  store i32 0, i32* %3, align 4
  br label %25

25:                                               ; preds = %58, %24
  %26 = load i32, i32* %3, align 4
  %27 = load i32, i32* %2, align 4
  %28 = icmp slt i32 %26, %27
  br i1 %28, label %29, label %61

29:                                               ; preds = %25
  %30 = load i32, i32* %3, align 4
  %31 = add nsw i32 %30, 1
  store i32 %31, i32* %4, align 4
  br label %32

32:                                               ; preds = %54, %29
  %33 = load i32, i32* %4, align 4
  %34 = load i32, i32* %2, align 4
  %35 = icmp slt i32 %33, %34
  br i1 %35, label %36, label %57

36:                                               ; preds = %32
  %37 = load i32, i32* %3, align 4
  %38 = sext i32 %37 to i64
  %39 = getelementptr inbounds [400 x [3 x i32]], [400 x [3 x i32]]* %5, i64 0, i64 %38
  %40 = getelementptr inbounds [3 x i32], [3 x i32]* %39, i64 0, i64 0
  %41 = load i32, i32* %40, align 4
  %42 = load i32, i32* %4, align 4
  %43 = sext i32 %42 to i64
  %44 = getelementptr inbounds [400 x [3 x i32]], [400 x [3 x i32]]* %5, i64 0, i64 %43
  %45 = getelementptr inbounds [3 x i32], [3 x i32]* %44, i64 0, i64 0
  %46 = load i32, i32* %45, align 4
  %47 = icmp eq i32 %41, %46
  br i1 %47, label %48, label %53

48:                                               ; preds = %36
  %49 = load i32, i32* %4, align 4
  %50 = sext i32 %49 to i64
  %51 = getelementptr inbounds [400 x [3 x i32]], [400 x [3 x i32]]* %5, i64 0, i64 %50
  %52 = getelementptr inbounds [3 x i32], [3 x i32]* %51, i64 0, i64 1
  store i32 1, i32* %52, align 4
  br label %53

53:                                               ; preds = %48, %36
  br label %54

54:                                               ; preds = %53
  %55 = load i32, i32* %4, align 4
  %56 = add nsw i32 %55, 1
  store i32 %56, i32* %4, align 4
  br label %32

57:                                               ; preds = %32
  br label %58

58:                                               ; preds = %57
  %59 = load i32, i32* %3, align 4
  %60 = add nsw i32 %59, 1
  store i32 %60, i32* %3, align 4
  br label %25

61:                                               ; preds = %25
  %62 = getelementptr inbounds [400 x [3 x i32]], [400 x [3 x i32]]* %5, i64 0, i64 0
  %63 = getelementptr inbounds [3 x i32], [3 x i32]* %62, i64 0, i64 0
  %64 = load i32, i32* %63, align 16
  %65 = call i32 (i8*, ...) @printf(i8* getelementptr inbounds ([3 x i8], [3 x i8]* @.str, i64 0, i64 0), i32 %64)
  store i32 1, i32* %3, align 4
  br label %66

66:                                               ; preds = %85, %61
  %67 = load i32, i32* %3, align 4
  %68 = load i32, i32* %2, align 4
  %69 = icmp slt i32 %67, %68
  br i1 %69, label %70, label %88

70:                                               ; preds = %66
  %71 = load i32, i32* %3, align 4
  %72 = sext i32 %71 to i64
  %73 = getelementptr inbounds [400 x [3 x i32]], [400 x [3 x i32]]* %5, i64 0, i64 %72
  %74 = getelementptr inbounds [3 x i32], [3 x i32]* %73, i64 0, i64 1
  %75 = load i32, i32* %74, align 4
  %76 = icmp ne i32 %75, 1
  br i1 %76, label %77, label %84

77:                                               ; preds = %70
  %78 = load i32, i32* %3, align 4
  %79 = sext i32 %78 to i64
  %80 = getelementptr inbounds [400 x [3 x i32]], [400 x [3 x i32]]* %5, i64 0, i64 %79
  %81 = getelementptr inbounds [3 x i32], [3 x i32]* %80, i64 0, i64 0
  %82 = load i32, i32* %81, align 4
  %83 = call i32 (i8*, ...) @printf(i8* getelementptr inbounds ([4 x i8], [4 x i8]* @.str.1, i64 0, i64 0), i32 %82)
  br label %84

84:                                               ; preds = %77, %70
  br label %85

85:                                               ; preds = %84
  %86 = load i32, i32* %3, align 4
  %87 = add nsw i32 %86, 1
  store i32 %87, i32* %3, align 4
  br label %66

88:                                               ; preds = %66
  ret i32 0
}

declare dso_local i32 @__isoc99_scanf(i8*, ...) #1

declare dso_local i32 @printf(i8*, ...) #1


!llvm.module.flags = !{!0}
!llvm.ident = !{!1}

!0 = !{i32 1, !"wchar_size", i32 4}
!1 = !{!"clang version 10.0.0-4ubuntu1 "}
